target datalayout = "e-m:e-p270:32:32-p271:32:32-p272:64:64-i64:64-i128:128-f80:128-n8:16:32:64-S128"
target triple = "x86_64-pc-linux-gnu"

%struct.Map_NodeStruct_t_ = type { ptr, ptr, i32, i32, i32, i32, [3 x i32], [3 x float], float, ptr, ptr, ptr, ptr, [2 x %struct.Map_TimeStruct_t_], [2 x %struct.Map_TimeStruct_t_], [2 x ptr], ptr, ptr, ptr }
%struct.Map_TimeStruct_t_ = type { float, float, float }
%struct.Map_ManStruct_t_ = type { ptr, i32, ptr, i32, ptr, i32, i32, ptr, ptr, ptr, ptr, ptr, ptr, ptr, ptr, i32, i32, i32, i32, float, float, float, float, i32, i32, float, i32, i32, i32, i32, ptr, [6 x [2 x i32]], [10 x [32 x i32]], [32 x i32], [32 x i32], ptr, ptr, ptr, ptr, ptr, ptr, i32, i32, i32, i32, i32, i32, i64, i64, i64, i64, i64, i64, i64, i64, i64, i64, i64 }

@.str = private unnamed_addr constant [16 x i8] c"Output  %-*s : \00", align 1
@.str.1 = private unnamed_addr constant [25 x i8] c"Delay = (%5.2f, %5.2f)  \00", align 1
@.str.2 = private unnamed_addr constant [3 x i8] c"%s\00", align 1
@.str.3 = private unnamed_addr constant [4 x i8] c"POS\00", align 1
@.str.4 = private unnamed_addr constant [4 x i8] c"NEG\00", align 1
@.str.5 = private unnamed_addr constant [2 x i8] c"\0A\00", align 1

; Function Attrs: nounwind uwtable
define internal i32 @Map_MappingCompareOutputDelay(ptr noundef %0, ptr noundef %1) #0 {
  %3 = alloca i32, align 4
  %4 = alloca ptr, align 8
  %5 = alloca ptr, align 8
  %6 = alloca ptr, align 8
  %7 = alloca ptr, align 8
  %8 = alloca i32, align 4
  %9 = alloca i32, align 4
  %10 = alloca float, align 4
  %11 = alloca float, align 4
  %12 = alloca i32, align 4
  store ptr %0, ptr %4, align 8, !tbaa !73
  store ptr %1, ptr %5, align 8, !tbaa !73
  call void @llvm.lifetime.start.p0(i64 8, ptr %6) #4
  %13 = load ptr, ptr %4, align 8, !tbaa !73
  %14 = load ptr, ptr %13, align 8, !tbaa !3
  %15 = ptrtoint ptr %14 to i64
  %16 = and i64 %15, -2
  %17 = inttoptr i64 %16 to ptr
  store ptr %17, ptr %6, align 8, !tbaa !3
  call void @llvm.lifetime.start.p0(i64 8, ptr %7) #4
  %18 = load ptr, ptr %5, align 8, !tbaa !73
  %19 = load ptr, ptr %18, align 8, !tbaa !3
  %20 = ptrtoint ptr %19 to i64
  %21 = and i64 %20, -2
  %22 = inttoptr i64 %21 to ptr
  store ptr %22, ptr %7, align 8, !tbaa !3
  call void @llvm.lifetime.start.p0(i64 4, ptr %8) #4
  %23 = load ptr, ptr %4, align 8, !tbaa !73
  %24 = load ptr, ptr %23, align 8, !tbaa !3
  %25 = ptrtoint ptr %24 to i64
  %26 = and i64 %25, 1
  %27 = trunc i64 %26 to i32
  %28 = icmp ne i32 %27, 0
  %29 = xor i1 %28, true
  %30 = zext i1 %29 to i32
  store i32 %30, ptr %8, align 4, !tbaa !10
  call void @llvm.lifetime.start.p0(i64 4, ptr %9) #4
  %31 = load ptr, ptr %5, align 8, !tbaa !73
  %32 = load ptr, ptr %31, align 8, !tbaa !3
  %33 = ptrtoint ptr %32 to i64
  %34 = and i64 %33, 1
  %35 = trunc i64 %34 to i32
  %36 = icmp ne i32 %35, 0
  %37 = xor i1 %36, true
  %38 = zext i1 %37 to i32
  store i32 %38, ptr %9, align 4, !tbaa !10
  call void @llvm.lifetime.start.p0(i64 4, ptr %10) #4
  %39 = load ptr, ptr %6, align 8, !tbaa !3
  %40 = getelementptr inbounds nuw %struct.Map_NodeStruct_t_, ptr %39, i32 0, i32 13
  %41 = load i32, ptr %8, align 4, !tbaa !10
  %42 = sext i32 %41 to i64
  %43 = getelementptr inbounds [2 x %struct.Map_TimeStruct_t_], ptr %40, i64 0, i64 %42
  %44 = getelementptr inbounds nuw %struct.Map_TimeStruct_t_, ptr %43, i32 0, i32 2
  %45 = load float, ptr %44, align 4, !tbaa !105
  store float %45, ptr %10, align 4, !tbaa !70
  call void @llvm.lifetime.start.p0(i64 4, ptr %11) #4
  %46 = load ptr, ptr %7, align 8, !tbaa !3
  %47 = getelementptr inbounds nuw %struct.Map_NodeStruct_t_, ptr %46, i32 0, i32 13
  %48 = load i32, ptr %9, align 4, !tbaa !10
  %49 = sext i32 %48 to i64
  %50 = getelementptr inbounds [2 x %struct.Map_TimeStruct_t_], ptr %47, i64 0, i64 %49
  %51 = getelementptr inbounds nuw %struct.Map_TimeStruct_t_, ptr %50, i32 0, i32 2
  %52 = load float, ptr %51, align 4, !tbaa !105
  store float %52, ptr %11, align 4, !tbaa !70
  %53 = load float, ptr %10, align 4, !tbaa !70
  %54 = load float, ptr %11, align 4, !tbaa !70
  %55 = fcmp olt float %53, %54
  br i1 %55, label %56, label %57

56:                                               ; preds = %2
  store i32 -1, ptr %3, align 4
  store i32 1, ptr %12, align 4
  br label %63

57:                                               ; preds = %2
  %58 = load float, ptr %10, align 4, !tbaa !70
  %59 = load float, ptr %11, align 4, !tbaa !70
  %60 = fcmp ogt float %58, %59
  br i1 %60, label %61, label %62

61:                                               ; preds = %57
  store i32 1, ptr %3, align 4
  store i32 1, ptr %12, align 4
  br label %63

62:                                               ; preds = %57
  store i32 0, ptr %3, align 4
  store i32 1, ptr %12, align 4
  br label %63

63:                                               ; preds = %62, %61, %56
  call void @llvm.lifetime.end.p0(i64 4, ptr %11) #4
  call void @llvm.lifetime.end.p0(i64 4, ptr %10) #4
  call void @llvm.lifetime.end.p0(i64 4, ptr %9) #4
  call void @llvm.lifetime.end.p0(i64 4, ptr %8) #4
  call void @llvm.lifetime.end.p0(i64 8, ptr %7) #4
  call void @llvm.lifetime.end.p0(i64 8, ptr %6) #4
  %64 = load i32, ptr %3, align 4
  ret i32 %64
}

; Function Attrs: nounwind uwtable
define internal void @Map_MappingFindLatest(ptr noundef %0, ptr noundef %1, i32 noundef %2) #0 {
  %4 = alloca ptr, align 8
  %5 = alloca ptr, align 8
  %6 = alloca i32, align 4
  %7 = alloca i32, align 4
  %8 = alloca i32, align 4
  %9 = alloca i32, align 4
  %10 = alloca i32, align 4
  store ptr %0, ptr %4, align 8, !tbaa !20
  store ptr %1, ptr %5, align 8, !tbaa !50
  store i32 %2, ptr %6, align 4, !tbaa !10
  call void @llvm.lifetime.start.p0(i64 4, ptr %7) #4
  call void @llvm.lifetime.start.p0(i64 4, ptr %8) #4
  call void @llvm.lifetime.start.p0(i64 4, ptr %9) #4
  call void @llvm.lifetime.start.p0(i64 4, ptr %10) #4
  %11 = load ptr, ptr %5, align 8, !tbaa !50
  %12 = getelementptr inbounds i32, ptr %11, i64 0
  store i32 0, ptr %12, align 4, !tbaa !10
  store i32 1, ptr %7, align 4, !tbaa !10
  store i32 1, ptr %8, align 4, !tbaa !10
  br label %13

13:                                               ; preds = %91, %3
  %14 = load i32, ptr %8, align 4, !tbaa !10
  %15 = load ptr, ptr %4, align 8, !tbaa !20
  %16 = getelementptr inbounds nuw %struct.Map_ManStruct_t_, ptr %15, i32 0, i32 5
  %17 = load i32, ptr %16, align 8, !tbaa !21
  %18 = icmp slt i32 %14, %17
  br i1 %18, label %19, label %94

19:                                               ; preds = %13
  %20 = load i32, ptr %7, align 4, !tbaa !10
  %21 = sub nsw i32 %20, 1
  store i32 %21, ptr %9, align 4, !tbaa !10
  br label %22

22:                                               ; preds = %46, %19
  %23 = load i32, ptr %9, align 4, !tbaa !10
  %24 = icmp sge i32 %23, 0
  br i1 %24, label %25, label %49

25:                                               ; preds = %22
  %26 = load ptr, ptr %4, align 8, !tbaa !20
  %27 = getelementptr inbounds nuw %struct.Map_ManStruct_t_, ptr %26, i32 0, i32 4
  %28 = load ptr, ptr %27, align 8, !tbaa !32
  %29 = load ptr, ptr %5, align 8, !tbaa !50
  %30 = load i32, ptr %9, align 4, !tbaa !10
  %31 = sext i32 %30 to i64
  %32 = getelementptr inbounds i32, ptr %29, i64 %31
  %33 = load i32, ptr %32, align 4, !tbaa !10
  %34 = sext i32 %33 to i64
  %35 = getelementptr inbounds ptr, ptr %28, i64 %34
  %36 = load ptr, ptr %4, align 8, !tbaa !20
  %37 = getelementptr inbounds nuw %struct.Map_ManStruct_t_, ptr %36, i32 0, i32 4
  %38 = load ptr, ptr %37, align 8, !tbaa !32
  %39 = load i32, ptr %8, align 4, !tbaa !10
  %40 = sext i32 %39 to i64
  %41 = getelementptr inbounds ptr, ptr %38, i64 %40
  %42 = call i32 @Map_MappingCompareOutputDelay(ptr noundef %35, ptr noundef %41)
  %43 = icmp sge i32 %42, 0
  br i1 %43, label %44, label %45

44:                                               ; preds = %25
  br label %49

45:                                               ; preds = %25
  br label %46

46:                                               ; preds = %45
  %47 = load i32, ptr %9, align 4, !tbaa !10
  %48 = add nsw i32 %47, -1
  store i32 %48, ptr %9, align 4, !tbaa !10
  br label %22, !llvm.loop !51

49:                                               ; preds = %44, %22
  %50 = load i32, ptr %9, align 4, !tbaa !10
  %51 = load i32, ptr %6, align 4, !tbaa !10
  %52 = sub nsw i32 %51, 1
  %53 = icmp eq i32 %50, %52
  br i1 %53, label %54, label %55

54:                                               ; preds = %49
  br label %91

55:                                               ; preds = %49
  %56 = load i32, ptr %7, align 4, !tbaa !10
  %57 = load i32, ptr %6, align 4, !tbaa !10
  %58 = icmp slt i32 %56, %57
  br i1 %58, label %59, label %62

59:                                               ; preds = %55
  %60 = load i32, ptr %7, align 4, !tbaa !10
  %61 = add nsw i32 %60, 1
  store i32 %61, ptr %7, align 4, !tbaa !10
  br label %62

62:                                               ; preds = %59, %55
  %63 = load i32, ptr %7, align 4, !tbaa !10
  %64 = sub nsw i32 %63, 1
  store i32 %64, ptr %10, align 4, !tbaa !10
  br label %65

65:                                               ; preds = %81, %62
  %66 = load i32, ptr %10, align 4, !tbaa !10
  %67 = load i32, ptr %9, align 4, !tbaa !10
  %68 = add nsw i32 %67, 1
  %69 = icmp sgt i32 %66, %68
  br i1 %69, label %70, label %84

70:                                               ; preds = %65
  %71 = load ptr, ptr %5, align 8, !tbaa !50
  %72 = load i32, ptr %10, align 4, !tbaa !10
  %73 = sub nsw i32 %72, 1
  %74 = sext i32 %73 to i64
  %75 = getelementptr inbounds i32, ptr %71, i64 %74
  %76 = load i32, ptr %75, align 4, !tbaa !10
  %77 = load ptr, ptr %5, align 8, !tbaa !50
  %78 = load i32, ptr %10, align 4, !tbaa !10
  %79 = sext i32 %78 to i64
  %80 = getelementptr inbounds i32, ptr %77, i64 %79
  store i32 %76, ptr %80, align 4, !tbaa !10
  br label %81

81:                                               ; preds = %70
  %82 = load i32, ptr %10, align 4, !tbaa !10
  %83 = add nsw i32 %82, -1
  store i32 %83, ptr %10, align 4, !tbaa !10
  br label %65, !llvm.loop !52

84:                                               ; preds = %65
  %85 = load i32, ptr %8, align 4, !tbaa !10
  %86 = load ptr, ptr %5, align 8, !tbaa !50
  %87 = load i32, ptr %9, align 4, !tbaa !10
  %88 = add nsw i32 %87, 1
  %89 = sext i32 %88 to i64
  %90 = getelementptr inbounds i32, ptr %86, i64 %89
  store i32 %85, ptr %90, align 4, !tbaa !10
  br label %91

91:                                               ; preds = %84, %54
  %92 = load i32, ptr %8, align 4, !tbaa !10
  %93 = add nsw i32 %92, 1
  store i32 %93, ptr %8, align 4, !tbaa !10
  br label %13, !llvm.loop !53

94:                                               ; preds = %13
  call void @llvm.lifetime.end.p0(i64 4, ptr %10) #4
  call void @llvm.lifetime.end.p0(i64 4, ptr %9) #4
  call void @llvm.lifetime.end.p0(i64 4, ptr %8) #4
  call void @llvm.lifetime.end.p0(i64 4, ptr %7) #4
  ret void
}

; Function Attrs: nounwind uwtable
define void @Map_MappingPrintOutputArrivals(ptr noundef %0) #0 {
  %2 = alloca ptr, align 8
  %3 = alloca [5 x i32], align 16
  %4 = alloca ptr, align 8
  %5 = alloca ptr, align 8
  %6 = alloca i32, align 4
  %7 = alloca i32, align 4
  %8 = alloca i32, align 4
  %9 = alloca i32, align 4
  store ptr %0, ptr %2, align 8, !tbaa !20
  call void @llvm.lifetime.start.p0(i64 20, ptr %3) #4
  call void @llvm.lifetime.start.p0(i64 8, ptr %4) #4
  call void @llvm.lifetime.start.p0(i64 8, ptr %5) #4
  call void @llvm.lifetime.start.p0(i64 4, ptr %6) #4
  call void @llvm.lifetime.start.p0(i64 4, ptr %7) #4
  call void @llvm.lifetime.start.p0(i64 4, ptr %8) #4
  call void @llvm.lifetime.start.p0(i64 4, ptr %9) #4
  %10 = load ptr, ptr %2, align 8, !tbaa !20
  %11 = getelementptr inbounds nuw %struct.Map_ManStruct_t_, ptr %10, i32 0, i32 5
  %12 = load i32, ptr %11, align 8, !tbaa !21
  %13 = icmp sgt i32 %12, 5
  br i1 %13, label %14, label %15

14:                                               ; preds = %1
  br label %19

15:                                               ; preds = %1
  %16 = load ptr, ptr %2, align 8, !tbaa !20
  %17 = getelementptr inbounds nuw %struct.Map_ManStruct_t_, ptr %16, i32 0, i32 5
  %18 = load i32, ptr %17, align 8, !tbaa !21
  br label %19

19:                                               ; preds = %15, %14
  %20 = phi i32 [ 5, %14 ], [ %18, %15 ]
  store i32 %20, ptr %7, align 4, !tbaa !10
  %21 = load ptr, ptr %2, align 8, !tbaa !20
  %22 = getelementptr inbounds [5 x i32], ptr %3, i64 0, i64 0
  %23 = load i32, ptr %7, align 4, !tbaa !10
  call void @Map_MappingFindLatest(ptr noundef %21, ptr noundef %22, i32 noundef %23)
  store i32 0, ptr %9, align 4, !tbaa !10
  store i32 0, ptr %8, align 4, !tbaa !10
  br label %24

24:                                               ; preds = %57, %19
  %25 = load i32, ptr %8, align 4, !tbaa !10
  %26 = load i32, ptr %7, align 4, !tbaa !10
  %27 = icmp slt i32 %25, %26
  br i1 %27, label %28, label %60

28:                                               ; preds = %24
  %29 = load i32, ptr %9, align 4, !tbaa !10
  %30 = load ptr, ptr %2, align 8, !tbaa !20
  %31 = getelementptr inbounds nuw %struct.Map_ManStruct_t_, ptr %30, i32 0, i32 11
  %32 = load ptr, ptr %31, align 8, !tbaa !42
  %33 = load i32, ptr %8, align 4, !tbaa !10
  %34 = sext i32 %33 to i64
  %35 = getelementptr inbounds [5 x i32], ptr %3, i64 0, i64 %34
  %36 = load i32, ptr %35, align 4, !tbaa !10
  %37 = sext i32 %36 to i64
  %38 = getelementptr inbounds ptr, ptr %32, i64 %37
  %39 = load ptr, ptr %38, align 8, !tbaa !43
  %40 = call i64 @strlen(ptr noundef %39) #5
  %41 = trunc i64 %40 to i32
  %42 = icmp slt i32 %29, %41
  br i1 %42, label %43, label %56

43:                                               ; preds = %28
  %44 = load ptr, ptr %2, align 8, !tbaa !20
  %45 = getelementptr inbounds nuw %struct.Map_ManStruct_t_, ptr %44, i32 0, i32 11
  %46 = load ptr, ptr %45, align 8, !tbaa !42
  %47 = load i32, ptr %8, align 4, !tbaa !10
  %48 = sext i32 %47 to i64
  %49 = getelementptr inbounds [5 x i32], ptr %3, i64 0, i64 %48
  %50 = load i32, ptr %49, align 4, !tbaa !10
  %51 = sext i32 %50 to i64
  %52 = getelementptr inbounds ptr, ptr %46, i64 %51
  %53 = load ptr, ptr %52, align 8, !tbaa !43
  %54 = call i64 @strlen(ptr noundef %53) #5
  %55 = trunc i64 %54 to i32
  store i32 %55, ptr %9, align 4, !tbaa !10
  br label %56

56:                                               ; preds = %43, %28
  br label %57

57:                                               ; preds = %56
  %58 = load i32, ptr %8, align 4, !tbaa !10
  %59 = add nsw i32 %58, 1
  store i32 %59, ptr %8, align 4, !tbaa !10
  br label %24, !llvm.loop !44

60:                                               ; preds = %24
  store i32 0, ptr %8, align 4, !tbaa !10
  br label %61

61:                                               ; preds = %128, %60
  %62 = load i32, ptr %8, align 4, !tbaa !10
  %63 = load i32, ptr %7, align 4, !tbaa !10
  %64 = icmp slt i32 %62, %63
  br i1 %64, label %65, label %131

65:                                               ; preds = %61
  %66 = load ptr, ptr %2, align 8, !tbaa !20
  %67 = getelementptr inbounds nuw %struct.Map_ManStruct_t_, ptr %66, i32 0, i32 4
  %68 = load ptr, ptr %67, align 8, !tbaa !32
  %69 = load i32, ptr %8, align 4, !tbaa !10
  %70 = sext i32 %69 to i64
  %71 = getelementptr inbounds [5 x i32], ptr %3, i64 0, i64 %70
  %72 = load i32, ptr %71, align 4, !tbaa !10
  %73 = sext i32 %72 to i64
  %74 = getelementptr inbounds ptr, ptr %68, i64 %73
  %75 = load ptr, ptr %74, align 8, !tbaa !3
  %76 = ptrtoint ptr %75 to i64
  %77 = and i64 %76, -2
  %78 = inttoptr i64 %77 to ptr
  store ptr %78, ptr %5, align 8, !tbaa !3
  %79 = load ptr, ptr %2, align 8, !tbaa !20
  %80 = getelementptr inbounds nuw %struct.Map_ManStruct_t_, ptr %79, i32 0, i32 4
  %81 = load ptr, ptr %80, align 8, !tbaa !32
  %82 = load i32, ptr %8, align 4, !tbaa !10
  %83 = sext i32 %82 to i64
  %84 = getelementptr inbounds [5 x i32], ptr %3, i64 0, i64 %83
  %85 = load i32, ptr %84, align 4, !tbaa !10
  %86 = sext i32 %85 to i64
  %87 = getelementptr inbounds ptr, ptr %81, i64 %86
  %88 = load ptr, ptr %87, align 8, !tbaa !3
  %89 = ptrtoint ptr %88 to i64
  %90 = and i64 %89, 1
  %91 = trunc i64 %90 to i32
  %92 = icmp ne i32 %91, 0
  %93 = xor i1 %92, true
  %94 = zext i1 %93 to i32
  store i32 %94, ptr %6, align 4, !tbaa !10
  %95 = load ptr, ptr %5, align 8, !tbaa !3
  %96 = getelementptr inbounds nuw %struct.Map_NodeStruct_t_, ptr %95, i32 0, i32 13
  %97 = getelementptr inbounds [2 x %struct.Map_TimeStruct_t_], ptr %96, i64 0, i64 0
  %98 = load i32, ptr %6, align 4, !tbaa !10
  %99 = sext i32 %98 to i64
  %100 = getelementptr inbounds %struct.Map_TimeStruct_t_, ptr %97, i64 %99
  store ptr %100, ptr %4, align 8, !tbaa !45
  %101 = load i32, ptr %9, align 4, !tbaa !10
  %102 = add nsw i32 %101, 3
  %103 = load ptr, ptr %2, align 8, !tbaa !20
  %104 = getelementptr inbounds nuw %struct.Map_ManStruct_t_, ptr %103, i32 0, i32 11
  %105 = load ptr, ptr %104, align 8, !tbaa !42
  %106 = load i32, ptr %8, align 4, !tbaa !10
  %107 = sext i32 %106 to i64
  %108 = getelementptr inbounds [5 x i32], ptr %3, i64 0, i64 %107
  %109 = load i32, ptr %108, align 4, !tbaa !10
  %110 = sext i32 %109 to i64
  %111 = getelementptr inbounds ptr, ptr %105, i64 %110
  %112 = load ptr, ptr %111, align 8, !tbaa !43
  %113 = call i32 (ptr, ...) @printf(ptr noundef @.str, i32 noundef %102, ptr noundef %112)
  %114 = load ptr, ptr %4, align 8, !tbaa !45
  %115 = getelementptr inbounds nuw %struct.Map_TimeStruct_t_, ptr %114, i32 0, i32 0
  %116 = load float, ptr %115, align 4, !tbaa !46
  %117 = fpext float %116 to double
  %118 = load ptr, ptr %4, align 8, !tbaa !45
  %119 = getelementptr inbounds nuw %struct.Map_TimeStruct_t_, ptr %118, i32 0, i32 1
  %120 = load float, ptr %119, align 4, !tbaa !48
  %121 = fpext float %120 to double
  %122 = call i32 (ptr, ...) @printf(ptr noundef @.str.1, double noundef %117, double noundef %121)
  %123 = load i32, ptr %6, align 4, !tbaa !10
  %124 = icmp ne i32 %123, 0
  %125 = select i1 %124, ptr @.str.3, ptr @.str.4
  %126 = call i32 (ptr, ...) @printf(ptr noundef @.str.2, ptr noundef %125)
  %127 = call i32 (ptr, ...) @printf(ptr noundef @.str.5)
  br label %128

128:                                              ; preds = %65
  %129 = load i32, ptr %8, align 4, !tbaa !10
  %130 = add nsw i32 %129, 1
  store i32 %130, ptr %8, align 4, !tbaa !10
  br label %61, !llvm.loop !49

131:                                              ; preds = %61
  call void @llvm.lifetime.end.p0(i64 4, ptr %9) #4
  call void @llvm.lifetime.end.p0(i64 4, ptr %8) #4
  call void @llvm.lifetime.end.p0(i64 4, ptr %7) #4
  call void @llvm.lifetime.end.p0(i64 4, ptr %6) #4
  call void @llvm.lifetime.end.p0(i64 8, ptr %5) #4
  call void @llvm.lifetime.end.p0(i64 8, ptr %4) #4
  call void @llvm.lifetime.end.p0(i64 20, ptr %3) #4
  ret void
}