; Function Attrs: nofree nounwind uwtable
define void @Map_MappingPrintOutputArrivals(ptr noundef readonly captures(none) %0) local_unnamed_addr #3 {
  %2 = alloca [5 x i32], align 16
  call void @llvm.lifetime.start.p0(i64 20, ptr nonnull %2) #16
  %3 = getelementptr inbounds nuw i8, ptr %0, i64 40
  %4 = load i32, ptr %3, align 8, !tbaa !16
  %spec.select = tail call i32 @llvm.smin.i32(i32 %4, i32 5)
  store i32 0, ptr %2, align 16, !tbaa !39
  %5 = icmp sgt i32 %4, 1
  br i1 %5, label %.preheader.lr.ph.i, label %Map_MappingFindLatest.exit

.preheader.lr.ph.i:                               ; preds = %1
  %6 = getelementptr inbounds nuw i8, ptr %0, i64 32
  %invariant.gep.i = getelementptr i8, ptr %2, i64 -8
  %7 = zext nneg i32 %4 to i64
  br label %.preheader.i

.preheader.i:                                     ; preds = %52, %.preheader.lr.ph.i
  %indvars.iv43.i = phi i64 [ 1, %.preheader.lr.ph.i ], [ %indvars.iv.next44.i, %52 ]
  %.02935.i = phi i32 [ 1, %.preheader.lr.ph.i ], [ %.1.i, %52 ]
  %8 = zext i32 %.02935.i to i64
  %smin.i = tail call i32 @llvm.smin.i32(i32 %.02935.i, i32 0)
  br label %9

9:                                                ; preds = %12, %.preheader.i
  %indvars.iv.i = phi i64 [ %8, %.preheader.i ], [ %13, %12 ]
  %10 = trunc nuw i64 %indvars.iv.i to i32
  %11 = icmp sgt i32 %10, 0
  br i1 %11, label %12, label %37

12:                                               ; preds = %9
  %13 = add nsw i64 %indvars.iv.i, -1
  %14 = load ptr, ptr %6, align 8, !tbaa !30
  %15 = getelementptr inbounds nuw i32, ptr %2, i64 %13
  %16 = load i32, ptr %15, align 4, !tbaa !39
  %17 = sext i32 %16 to i64
  %18 = getelementptr inbounds ptr, ptr %14, i64 %17
  %19 = getelementptr inbounds nuw ptr, ptr %14, i64 %indvars.iv43.i
  %.val.i = load ptr, ptr %18, align 8, !tbaa !31
  %.val31.i = load ptr, ptr %19, align 8, !tbaa !31
  %20 = ptrtoint ptr %.val.i to i64
  %21 = and i64 %20, -2
  %22 = inttoptr i64 %21 to ptr
  %23 = ptrtoint ptr %.val31.i to i64
  %24 = and i64 %23, -2
  %25 = inttoptr i64 %24 to ptr
  %26 = and i64 %20, 1
  %27 = xor i64 %26, 1
  %28 = and i64 %23, 1
  %29 = xor i64 %28, 1
  %.idx.i.i = mul nuw nsw i64 %27, 12
  %30 = getelementptr i8, ptr %22, i64 104
  %31 = getelementptr i8, ptr %30, i64 %.idx.i.i
  %32 = load float, ptr %31, align 4, !tbaa !40
  %.idx14.i.i = mul nuw nsw i64 %29, 12
  %33 = getelementptr i8, ptr %25, i64 104
  %34 = getelementptr i8, ptr %33, i64 %.idx14.i.i
  %35 = load float, ptr %34, align 4, !tbaa !40
  %36 = fcmp uge float %32, %35
  br i1 %36, label %37, label %9, !llvm.loop !42

37:                                               ; preds = %12, %9
  %.027.in.lcssa.i = phi i32 [ %10, %12 ], [ %smin.i, %9 ]
  %38 = icmp eq i32 %.027.in.lcssa.i, %spec.select
  br i1 %38, label %52, label %39

39:                                               ; preds = %37
  %40 = icmp slt i32 %.02935.i, %spec.select
  %41 = zext i1 %40 to i32
  %spec.select.i = add nsw i32 %.02935.i, %41
  %.032.i = add nsw i32 %spec.select.i, -1
  %42 = icmp sgt i32 %.032.i, %.027.in.lcssa.i
  br i1 %42, label %.lr.ph.preheader.i, label %.._crit_edge_crit_edge.i

.._crit_edge_crit_edge.i:                         ; preds = %39
  %.pre46.i = sext i32 %.027.in.lcssa.i to i64
  br label %._crit_edge.i

.lr.ph.preheader.i:                               ; preds = %39
  %43 = sext i32 %.032.i to i64
  %44 = sext i32 %.027.in.lcssa.i to i64
  br label %.lr.ph.i

.lr.ph.i:                                         ; preds = %.lr.ph.i, %.lr.ph.preheader.i
  %indvars.iv40.i = phi i64 [ %43, %.lr.ph.preheader.i ], [ %indvars.iv.next41.i, %.lr.ph.i ]
  %.0.in33.i = phi i32 [ %spec.select.i, %.lr.ph.preheader.i ], [ %49, %.lr.ph.i ]
  %45 = sext i32 %.0.in33.i to i64
  %gep.i = getelementptr i32, ptr %invariant.gep.i, i64 %45
  %46 = load i32, ptr %gep.i, align 4, !tbaa !39
  %47 = getelementptr inbounds i32, ptr %2, i64 %indvars.iv40.i
  store i32 %46, ptr %47, align 4, !tbaa !39
  %indvars.iv.next41.i = add nsw i64 %indvars.iv40.i, -1
  %48 = icmp sgt i64 %indvars.iv.next41.i, %44
  %49 = trunc nsw i64 %indvars.iv40.i to i32
  br i1 %48, label %.lr.ph.i, label %._crit_edge.i, !llvm.loop !43

._crit_edge.i:                                    ; preds = %.lr.ph.i, %.._crit_edge_crit_edge.i
  %.pre-phi.i = phi i64 [ %.pre46.i, %.._crit_edge_crit_edge.i ], [ %44, %.lr.ph.i ]
  %50 = getelementptr inbounds i32, ptr %2, i64 %.pre-phi.i
  %51 = trunc nuw nsw i64 %indvars.iv43.i to i32
  store i32 %51, ptr %50, align 4, !tbaa !39
  br label %52

52:                                               ; preds = %._crit_edge.i, %37
  %.1.i = phi i32 [ %.02935.i, %37 ], [ %spec.select.i, %._crit_edge.i ]
  %indvars.iv.next44.i = add nuw nsw i64 %indvars.iv43.i, 1
  %exitcond.not = icmp eq i64 %indvars.iv.next44.i, %7
  br i1 %exitcond.not, label %Map_MappingFindLatest.exit, label %.preheader.i, !llvm.loop !44

Map_MappingFindLatest.exit:                       ; preds = %52, %1
  %53 = icmp sgt i32 %4, 0
  br i1 %53, label %.lr.ph, label %._crit_edge

.lr.ph:                                           ; preds = %Map_MappingFindLatest.exit
  %54 = getelementptr inbounds nuw i8, ptr %0, i64 80
  %55 = load ptr, ptr %54, align 8, !tbaa !45
  %wide.trip.count = zext nneg i32 %spec.select to i64
  br label %59

.preheader:                                       ; preds = %59
  %56 = add nuw nsw i32 %spec.select31, 3
  %57 = getelementptr inbounds nuw i8, ptr %0, i64 32
  %58 = getelementptr inbounds nuw i8, ptr %0, i64 80
  %wide.trip.count41 = zext nneg i32 %spec.select to i64
  br label %67

59:                                               ; preds = %.lr.ph, %59
  %indvars.iv = phi i64 [ 0, %.lr.ph ], [ %indvars.iv.next, %59 ]
  %.033 = phi i32 [ 0, %.lr.ph ], [ %spec.select31, %59 ]
  %60 = getelementptr inbounds nuw [5 x i32], ptr %2, i64 0, i64 %indvars.iv
  %61 = load i32, ptr %60, align 4, !tbaa !39
  %62 = sext i32 %61 to i64
  %63 = getelementptr inbounds ptr, ptr %55, i64 %62
  %64 = load ptr, ptr %63, align 8, !tbaa !46
  %65 = tail call i64 @strlen(ptr noundef nonnull dereferenceable(1) %64) #17
  %66 = trunc i64 %65 to i32
  %spec.select31 = tail call i32 @llvm.smax.i32(i32 %.033, i32 %66)
  %indvars.iv.next = add nuw nsw i64 %indvars.iv, 1
  %exitcond37.not = icmp eq i64 %indvars.iv.next, %wide.trip.count
  br i1 %exitcond37.not, label %.preheader, label %59, !llvm.loop !47

67:                                               ; preds = %.preheader, %67
  %indvars.iv38 = phi i64 [ 0, %.preheader ], [ %indvars.iv.next39, %67 ]
  %68 = load ptr, ptr %57, align 8, !tbaa !30
  %69 = getelementptr inbounds nuw [5 x i32], ptr %2, i64 0, i64 %indvars.iv38
  %70 = load i32, ptr %69, align 4, !tbaa !39
  %71 = sext i32 %70 to i64
  %72 = getelementptr inbounds ptr, ptr %68, i64 %71
  %73 = load ptr, ptr %72, align 8, !tbaa !31
  %74 = ptrtoint ptr %73 to i64
  %75 = and i64 %74, -2
  %76 = inttoptr i64 %75 to ptr
  %77 = and i64 %74, 1
  %.not = icmp eq i64 %77, 0
  %78 = xor i64 %77, 1
  %79 = getelementptr inbounds nuw i8, ptr %76, i64 96
  %80 = getelementptr inbounds nuw %struct.Map_TimeStruct_t_, ptr %79, i64 %78
  %81 = load ptr, ptr %58, align 8, !tbaa !45
  %82 = getelementptr inbounds ptr, ptr %81, i64 %71
  %83 = load ptr, ptr %82, align 8, !tbaa !46
  %84 = tail call i32 (ptr, ...) @printf(ptr noundef nonnull dereferenceable(1) @.str, i32 noundef %56, ptr noundef %83)
  %85 = load float, ptr %80, align 4, !tbaa !48
  %86 = fpext float %85 to double
  %87 = getelementptr inbounds nuw i8, ptr %80, i64 4
  %88 = load float, ptr %87, align 4, !tbaa !49
  %89 = fpext float %88 to double
  %90 = tail call i32 (ptr, ...) @printf(ptr noundef nonnull dereferenceable(1) @.str.1, double noundef %86, double noundef %89)
  %91 = select i1 %.not, ptr @.str.3, ptr @.str.4
  %92 = tail call i32 (ptr, ...) @printf(ptr noundef nonnull dereferenceable(1) @.str.2, ptr noundef nonnull %91)
  %putchar = tail call i32 @putchar(i32 10)
  %indvars.iv.next39 = add nuw nsw i64 %indvars.iv38, 1
  %exitcond42.not = icmp eq i64 %indvars.iv.next39, %wide.trip.count41
  br i1 %exitcond42.not, label %._crit_edge, label %67, !llvm.loop !50

._crit_edge:                                      ; preds = %67, %Map_MappingFindLatest.exit
  call void @llvm.lifetime.end.p0(i64 20, ptr nonnull %2) #16
  ret void
}